; Function Attrs: mustprogress nofree norecurse nosync nounwind willreturn memory(read, argmem: readwrite, inaccessiblemem: none) uwtable
define range(i32 0, 2) i32 @ASN1_const_check_infinite_end(ptr noundef captures(none) %0, i64 noundef %1) local_unnamed_addr #0 {
  %3 = icmp slt i64 %1, 1
  br i1 %3, label %_asn1_check_infinite_end.exit, label %4

4:                                                ; preds = %2
  %.not.i = icmp eq i64 %1, 1
  br i1 %.not.i, label %_asn1_check_infinite_end.exit, label %5

5:                                                ; preds = %4
  %6 = load ptr, ptr %0, align 8, !tbaa !3
  %7 = load i8, ptr %6, align 1, !tbaa !8
  %8 = icmp eq i8 %7, 0
  br i1 %8, label %9, label %_asn1_check_infinite_end.exit

9:                                                ; preds = %5
  %10 = getelementptr inbounds nuw i8, ptr %6, i64 1
  %11 = load i8, ptr %10, align 1, !tbaa !8
  %12 = icmp eq i8 %11, 0
  br i1 %12, label %13, label %_asn1_check_infinite_end.exit

13:                                               ; preds = %9
  %14 = getelementptr inbounds nuw i8, ptr %6, i64 2
  store ptr %14, ptr %0, align 8, !tbaa !3
  br label %_asn1_check_infinite_end.exit

_asn1_check_infinite_end.exit:                    ; preds = %2, %4, %5, %9, %13
  %.0.i = phi i32 [ 1, %13 ], [ 1, %2 ], [ 0, %4 ], [ 0, %5 ], [ 0, %9 ]
  ret i32 %.0.i
}